; Function Attrs: mustprogress nofree norecurse nosync nounwind willreturn memory(read, inaccessiblemem: none) uwtable
define noundef double @_ZNK5Ipopt11DenseVector7MaxImplEv(ptr nocapture noundef nonnull readonly align 8 dereferenceable(248) %0) unnamed_addr #10 align 2 {
  %2 = getelementptr inbounds i8, ptr %0, i64 56
  %3 = load ptr, ptr %2, align 8
  %4 = getelementptr inbounds i8, ptr %3, i64 12
  %5 = load i32, ptr %4, align 4
  %6 = icmp eq i32 %5, 0
  br i1 %6, label %.loopexit, label %7

7:                                                ; preds = %1
  %8 = getelementptr inbounds i8, ptr %0, i64 233
  %9 = load i8, ptr %8, align 1
  %10 = and i8 %9, 1
  %.not = icmp eq i8 %10, 0
  br i1 %.not, label %14, label %11

11:                                               ; preds = %7
  %12 = getelementptr inbounds i8, ptr %0, i64 240
  %13 = load double, ptr %12, align 8
  br label %.loopexit

14:                                               ; preds = %7
  %15 = getelementptr inbounds i8, ptr %0, i64 216
  %16 = load ptr, ptr %15, align 8
  %17 = load double, ptr %16, align 8
  %18 = icmp sgt i32 %5, 1
  br i1 %18, label %.lr.ph.preheader, label %.loopexit

.lr.ph.preheader:                                 ; preds = %14
  %wide.trip.count = zext nneg i32 %5 to i64
  br label %.lr.ph

.lr.ph:                                           ; preds = %.lr.ph.preheader, %.lr.ph
  %indvars.iv = phi i64 [ 1, %.lr.ph.preheader ], [ %indvars.iv.next, %.lr.ph ]
  %.068 = phi double [ %17, %.lr.ph.preheader ], [ %.sroa.speculated.i, %.lr.ph ]
  %19 = getelementptr inbounds double, ptr %16, i64 %indvars.iv
  %20 = load double, ptr %19, align 8
  %21 = fcmp olt double %20, %.068
  %.sroa.speculated.i = select i1 %21, double %.068, double %20
  %indvars.iv.next = add nuw nsw i64 %indvars.iv, 1
  %exitcond.not = icmp eq i64 %indvars.iv.next, %wide.trip.count
  br i1 %exitcond.not, label %.loopexit, label %.lr.ph, !llvm.loop !26

.loopexit:                                        ; preds = %.lr.ph, %14, %1, %11
  %.07 = phi double [ %13, %11 ], [ 0xFFEFFFFFFFFFFFFF, %1 ], [ %17, %14 ], [ %.sroa.speculated.i, %.lr.ph ]
  ret double %.07
}